ccopy_reg
_reconstructor
p0
(cduecredit.collector
DueCreditCollector
p1
c__builtin__
object
p2
Ntp3
Rp4
(dp5
S'_entries'
p6
(dp7
S'mynicearticle'
p8
g0
(cduecredit.entries
BibTeX
p9
g2
Ntp10
Rp11
(dp12
S'_key'
p13
S'mynicearticle'
p14
sS'_reference'
p15
NsS'_rawentry'
p16
S'@article{mynicearticle,\n           title={A very cool paper},\n           author={Happy, Author and Lucky, Author},\n           journal={The Journal of Serendipitous Discoveries}\n           }'
p17
sbsS'10.1016/j.actamat.2005.08.033'
p18
g0
(cduecredit.entries
Doi
p19
g2
Ntp20
Rp21
(dp22
g13
S'10.1016/j.actamat.2005.08.033'
p23
sS'doi'
p24
S'10.1016/j.actamat.2005.08.033'
p25
sg16
g25
sbssS'citations'
p26
(dp27
g0
(cduecredit.collector
CitationKey
p28
c__builtin__
tuple
p29
(S'magicpy'
p30
g8
tp31
tp32
Rp33
g0
(cduecredit.collector
Citation
p34
g2
Ntp35
Rp36
(dp37
S'count'
p38
I5
sS'tags'
p39
(lp40
S'implementation'
p41
asS'_description'
p42
S'Solves all your problems'
p43
sS'_cite_module'
p44
I00
sS'version'
p45
NsS'_entry'
p46
g0
(g9
g2
Ntp47
Rp48
(dp49
g13
g8
sg15
Nsg16
S'@article{mynicearticle,\n           title={A very cool paper},\n           author={Happy, Author and Lucky, Author},\n           journal={The Journal of Serendipitous Discoveries}\n           }'
p50
sbsS'_path'
p51
g30
sbsg0
(g28
g29
(S'magicpy'
p52
g18
tp53
tp54
Rp55
g0
(g34
g2
Ntp56
Rp57
(dp58
g38
I2
sg39
(lp59
S'implementation'
p60
asg42
S'EveryPaper'
p61
sg44
I00
sg45
Nsg46
g0
(g19
g2
Ntp62
Rp63
(dp64
g13
g18
sg24
S'10.1016/j.actamat.2005.08.033'
p65
sg16
g65
sbsg51
g52
sbsg0
(g28
g29
(S'randomtests'
p66
g14
tp67
tp68
Rp69
g0
(g34
g2
Ntp70
Rp71
(dp72
g38
I1
sg39
(lp73
S'implementation'
p74
asg42
S'Solves all your problems'
p75
sg44
I00
sg45
(iduecredit.versions
UnknownVersion
p76
(dp77
bsg46
g11
sg51
g66
sbssb.